target datalayout = "e-m:e-p270:32:32-p271:32:32-p272:64:64-i64:64-i128:128-f80:128-n8:16:32:64-S128"
target triple = "x86_64-pc-linux-gnu"

%struct.PyEvent = type { i8 }
%struct.PyMutex = type { i8 }
%struct.bench_data_locks = type { i32, i32, i32, [200 x i8], ptr, %struct.PyMutex, double, i64 }
%struct.bench_thread_data = type { ptr, i64, %struct.PyEvent }

; Function Attrs: inlinehint nounwind uwtable
define internal i32 @_Py_atomic_compare_exchange_uint8(ptr noundef %0, ptr noundef %1, i8 noundef zeroext %2) #4 {
  %4 = alloca ptr, align 8
  %5 = alloca ptr, align 8
  %6 = alloca i8, align 1
  %7 = alloca i8, align 1
  %8 = alloca i8, align 1
  store ptr %0, ptr %4, align 8, !tbaa !41
  store ptr %1, ptr %5, align 8, !tbaa !41
  store i8 %2, ptr %6, align 1, !tbaa !15
  %9 = load ptr, ptr %4, align 8, !tbaa !41
  %10 = load ptr, ptr %5, align 8, !tbaa !41
  %11 = load i8, ptr %6, align 1, !tbaa !15
  store i8 %11, ptr %7, align 1, !tbaa !15
  %12 = load i8, ptr %10, align 1
  %13 = load i8, ptr %7, align 1
  %14 = cmpxchg ptr %9, i8 %12, i8 %13 seq_cst seq_cst, align 1
  %15 = extractvalue { i8, i1 } %14, 0
  %16 = extractvalue { i8, i1 } %14, 1
  br i1 %16, label %18, label %17

17:                                               ; preds = %3
  store i8 %15, ptr %10, align 1
  br label %18

18:                                               ; preds = %17, %3
  %19 = zext i1 %16 to i8
  store i8 %19, ptr %8, align 1, !tbaa !43
  %20 = load i8, ptr %8, align 1, !tbaa !43, !range !45, !noundef !46
  %21 = trunc i8 %20 to i1
  %22 = zext i1 %21 to i32
  ret i32 %22
}

; Function Attrs: inlinehint nounwind uwtable
define internal i64 @_Py_atomic_add_ssize(ptr noundef %0, i64 noundef %1) #4 {
  %3 = alloca ptr, align 8
  %4 = alloca i64, align 8
  %5 = alloca i64, align 8
  %6 = alloca i64, align 8
  store ptr %0, ptr %3, align 8, !tbaa !84
  store i64 %1, ptr %4, align 8, !tbaa !18
  %7 = load ptr, ptr %3, align 8, !tbaa !84
  %8 = load i64, ptr %4, align 8, !tbaa !18
  store i64 %8, ptr %5, align 8, !tbaa !18
  %9 = load i64, ptr %5, align 8
  %10 = atomicrmw add ptr %7, i64 %9 seq_cst, align 8
  store i64 %10, ptr %6, align 8
  %11 = load i64, ptr %6, align 8, !tbaa !18
  ret i64 %11
}

; Function Attrs: inlinehint nounwind uwtable
define internal void @_PyMutex_Unlock(ptr noundef %0) #4 {
  %2 = alloca ptr, align 8
  %3 = alloca i8, align 1
  store ptr %0, ptr %2, align 8, !tbaa !39
  call void @llvm.lifetime.start.p0(i64 1, ptr %3) #8
  store i8 1, ptr %3, align 1, !tbaa !15
  %4 = load ptr, ptr %2, align 8, !tbaa !39
  %5 = getelementptr inbounds nuw %struct.PyMutex, ptr %4, i32 0, i32 0
  %6 = call i32 @_Py_atomic_compare_exchange_uint8(ptr noundef %5, ptr noundef %3, i8 noundef zeroext 0)
  %7 = icmp ne i32 %6, 0
  br i1 %7, label %10, label %8

8:                                                ; preds = %1
  %9 = load ptr, ptr %2, align 8, !tbaa !39
  call void @PyMutex_Unlock(ptr noundef %9)
  br label %10

10:                                               ; preds = %8, %1
  call void @llvm.lifetime.end.p0(i64 1, ptr %3) #8
  ret void
}

; Function Attrs: inlinehint nounwind uwtable
define internal void @_PyMutex_Lock(ptr noundef %0) #4 {
  %2 = alloca ptr, align 8
  %3 = alloca i8, align 1
  store ptr %0, ptr %2, align 8, !tbaa !39
  call void @llvm.lifetime.start.p0(i64 1, ptr %3) #8
  store i8 0, ptr %3, align 1, !tbaa !15
  %4 = load ptr, ptr %2, align 8, !tbaa !39
  %5 = getelementptr inbounds nuw %struct.PyMutex, ptr %4, i32 0, i32 0
  %6 = call i32 @_Py_atomic_compare_exchange_uint8(ptr noundef %5, ptr noundef %3, i8 noundef zeroext 1)
  %7 = icmp ne i32 %6, 0
  br i1 %7, label %10, label %8

8:                                                ; preds = %1
  %9 = load ptr, ptr %2, align 8, !tbaa !39
  call void @PyMutex_Lock(ptr noundef %9)
  br label %10

10:                                               ; preds = %8, %1
  call void @llvm.lifetime.end.p0(i64 1, ptr %3) #8
  ret void
}

; Function Attrs: inlinehint nounwind uwtable
define internal i32 @_Py_atomic_load_int_relaxed(ptr noundef %0) #4 {
  %2 = alloca ptr, align 8
  %3 = alloca i32, align 4
  store ptr %0, ptr %2, align 8, !tbaa !50
  %4 = load ptr, ptr %2, align 8, !tbaa !50
  %5 = load atomic i32, ptr %4 monotonic, align 4
  store i32 %5, ptr %3, align 4
  %6 = load i32, ptr %3, align 4, !tbaa !14
  ret i32 %6
}

; Function Attrs: nounwind uwtable
define internal void @thread_benchmark_locks(ptr noundef %0) #0 {
  %2 = alloca ptr, align 8
  %3 = alloca ptr, align 8
  %4 = alloca ptr, align 8
  %5 = alloca i32, align 4
  %6 = alloca i32, align 4
  %7 = alloca double, align 8
  %8 = alloca i64, align 8
  %9 = alloca i32, align 4
  %10 = alloca i32, align 4
  store ptr %0, ptr %2, align 8, !tbaa !47
  call void @llvm.lifetime.start.p0(i64 8, ptr %3) #8
  %11 = load ptr, ptr %2, align 8, !tbaa !47
  store ptr %11, ptr %3, align 8, !tbaa !62
  call void @llvm.lifetime.start.p0(i64 8, ptr %4) #8
  %12 = load ptr, ptr %3, align 8, !tbaa !62
  %13 = getelementptr inbounds nuw %struct.bench_thread_data, ptr %12, i32 0, i32 0
  %14 = load ptr, ptr %13, align 8, !tbaa !64
  store ptr %14, ptr %4, align 8, !tbaa !73
  call void @llvm.lifetime.start.p0(i64 4, ptr %5) #8
  %15 = load ptr, ptr %4, align 8, !tbaa !73
  %16 = getelementptr inbounds nuw %struct.bench_data_locks, ptr %15, i32 0, i32 1
  %17 = load i32, ptr %16, align 4, !tbaa !57
  store i32 %17, ptr %5, align 4, !tbaa !14
  call void @llvm.lifetime.start.p0(i64 4, ptr %6) #8
  %18 = load ptr, ptr %4, align 8, !tbaa !73
  %19 = getelementptr inbounds nuw %struct.bench_data_locks, ptr %18, i32 0, i32 2
  %20 = load i32, ptr %19, align 8, !tbaa !60
  store i32 %20, ptr %6, align 4, !tbaa !14
  call void @llvm.lifetime.start.p0(i64 8, ptr %7) #8
  store double 1.000000e+00, ptr %7, align 8, !tbaa !72
  call void @llvm.lifetime.start.p0(i64 8, ptr %8) #8
  store i64 0, ptr %8, align 8, !tbaa !18
  br label %21

21:                                               ; preds = %79, %1
  %22 = load ptr, ptr %4, align 8, !tbaa !73
  %23 = getelementptr inbounds nuw %struct.bench_data_locks, ptr %22, i32 0, i32 0
  %24 = call i32 @_Py_atomic_load_int_relaxed(ptr noundef %23)
  %25 = icmp ne i32 %24, 0
  %26 = xor i1 %25, true
  br i1 %26, label %27, label %82

27:                                               ; preds = %21
  %28 = load i32, ptr %5, align 4, !tbaa !14
  %29 = icmp ne i32 %28, 0
  br i1 %29, label %30, label %53

30:                                               ; preds = %27
  %31 = load ptr, ptr %4, align 8, !tbaa !73
  %32 = getelementptr inbounds nuw %struct.bench_data_locks, ptr %31, i32 0, i32 5
  call void @_PyMutex_Lock(ptr noundef %32)
  call void @llvm.lifetime.start.p0(i64 4, ptr %9) #8
  store i32 0, ptr %9, align 4, !tbaa !14
  br label %33

33:                                               ; preds = %47, %30
  %34 = load i32, ptr %9, align 4, !tbaa !14
  %35 = load i32, ptr %6, align 4, !tbaa !14
  %36 = icmp slt i32 %34, %35
  br i1 %36, label %38, label %37

37:                                               ; preds = %33
  call void @llvm.lifetime.end.p0(i64 4, ptr %9) #8
  br label %50

38:                                               ; preds = %33
  %39 = load double, ptr %7, align 8, !tbaa !72
  %40 = load ptr, ptr %4, align 8, !tbaa !73
  %41 = getelementptr inbounds nuw %struct.bench_data_locks, ptr %40, i32 0, i32 6
  %42 = load double, ptr %41, align 8, !tbaa !74
  %43 = fadd double %42, %39
  store double %43, ptr %41, align 8, !tbaa !74
  %44 = load ptr, ptr %4, align 8, !tbaa !73
  %45 = getelementptr inbounds nuw %struct.bench_data_locks, ptr %44, i32 0, i32 6
  %46 = load double, ptr %45, align 8, !tbaa !74
  store double %46, ptr %7, align 8, !tbaa !72
  br label %47

47:                                               ; preds = %38
  %48 = load i32, ptr %9, align 4, !tbaa !14
  %49 = add i32 %48, 1
  store i32 %49, ptr %9, align 4, !tbaa !14
  br label %33, !llvm.loop !75

50:                                               ; preds = %37
  %51 = load ptr, ptr %4, align 8, !tbaa !73
  %52 = getelementptr inbounds nuw %struct.bench_data_locks, ptr %51, i32 0, i32 5
  call void @_PyMutex_Unlock(ptr noundef %52)
  br label %79

53:                                               ; preds = %27
  %54 = load ptr, ptr %4, align 8, !tbaa !73
  %55 = getelementptr inbounds nuw %struct.bench_data_locks, ptr %54, i32 0, i32 4
  %56 = load ptr, ptr %55, align 8, !tbaa !61
  %57 = call i32 @PyThread_acquire_lock(ptr noundef %56, i32 noundef 1)
  call void @llvm.lifetime.start.p0(i64 4, ptr %10) #8
  store i32 0, ptr %10, align 4, !tbaa !14
  br label %58

58:                                               ; preds = %72, %53
  %59 = load i32, ptr %10, align 4, !tbaa !14
  %60 = load i32, ptr %6, align 4, !tbaa !14
  %61 = icmp slt i32 %59, %60
  br i1 %61, label %63, label %62

62:                                               ; preds = %58
  call void @llvm.lifetime.end.p0(i64 4, ptr %10) #8
  br label %75

63:                                               ; preds = %58
  %64 = load double, ptr %7, align 8, !tbaa !72
  %65 = load ptr, ptr %4, align 8, !tbaa !73
  %66 = getelementptr inbounds nuw %struct.bench_data_locks, ptr %65, i32 0, i32 6
  %67 = load double, ptr %66, align 8, !tbaa !74
  %68 = fadd double %67, %64
  store double %68, ptr %66, align 8, !tbaa !74
  %69 = load ptr, ptr %4, align 8, !tbaa !73
  %70 = getelementptr inbounds nuw %struct.bench_data_locks, ptr %69, i32 0, i32 6
  %71 = load double, ptr %70, align 8, !tbaa !74
  store double %71, ptr %7, align 8, !tbaa !72
  br label %72

72:                                               ; preds = %63
  %73 = load i32, ptr %10, align 4, !tbaa !14
  %74 = add i32 %73, 1
  store i32 %74, ptr %10, align 4, !tbaa !14
  br label %58, !llvm.loop !76

75:                                               ; preds = %62
  %76 = load ptr, ptr %4, align 8, !tbaa !73
  %77 = getelementptr inbounds nuw %struct.bench_data_locks, ptr %76, i32 0, i32 4
  %78 = load ptr, ptr %77, align 8, !tbaa !61
  call void @PyThread_release_lock(ptr noundef %78)
  br label %79

79:                                               ; preds = %75, %50
  %80 = load i64, ptr %8, align 8, !tbaa !18
  %81 = add i64 %80, 1
  store i64 %81, ptr %8, align 8, !tbaa !18
  br label %21, !llvm.loop !77

82:                                               ; preds = %21
  %83 = load i64, ptr %8, align 8, !tbaa !18
  %84 = load ptr, ptr %3, align 8, !tbaa !62
  %85 = getelementptr inbounds nuw %struct.bench_thread_data, ptr %84, i32 0, i32 1
  store i64 %83, ptr %85, align 8, !tbaa !70
  %86 = load ptr, ptr %4, align 8, !tbaa !73
  %87 = getelementptr inbounds nuw %struct.bench_data_locks, ptr %86, i32 0, i32 7
  %88 = load i64, ptr %8, align 8, !tbaa !18
  %89 = call i64 @_Py_atomic_add_ssize(ptr noundef %87, i64 noundef %88)
  %90 = load ptr, ptr %3, align 8, !tbaa !62
  %91 = getelementptr inbounds nuw %struct.bench_thread_data, ptr %90, i32 0, i32 2
  call void @_PyEvent_Notify(ptr noundef %91)
  call void @llvm.lifetime.end.p0(i64 8, ptr %8) #8
  call void @llvm.lifetime.end.p0(i64 8, ptr %7) #8
  call void @llvm.lifetime.end.p0(i64 4, ptr %6) #8
  call void @llvm.lifetime.end.p0(i64 4, ptr %5) #8
  call void @llvm.lifetime.end.p0(i64 8, ptr %4) #8
  call void @llvm.lifetime.end.p0(i64 8, ptr %3) #8
  ret void
}