; Function Attrs: nounwind uwtable
define internal void @thread_benchmark_locks(ptr noundef %0) #0 {
  %2 = load ptr, ptr %0, align 8, !tbaa !44
  %3 = getelementptr inbounds nuw i8, ptr %2, i64 4
  %4 = load i32, ptr %3, align 4, !tbaa !39
  %5 = getelementptr inbounds nuw i8, ptr %2, i64 8
  %6 = load i32, ptr %5, align 8, !tbaa !42
  %.fr56 = freeze i32 %6
  %7 = load atomic i32, ptr %2 monotonic, align 4
  %.not41 = icmp eq i32 %7, 0
  br i1 %.not41, label %.lr.ph45, label %._crit_edge46

.lr.ph45:                                         ; preds = %1
  %.not30 = icmp eq i32 %4, 0
  %8 = getelementptr inbounds nuw i8, ptr %2, i64 224
  %9 = getelementptr inbounds nuw i8, ptr %2, i64 232
  %10 = getelementptr inbounds nuw i8, ptr %2, i64 216
  %11 = icmp sgt i32 %.fr56, 0
  br i1 %.not30, label %.lr.ph45.split.us, label %.lr.ph45.split

.lr.ph45.split.us:                                ; preds = %.lr.ph45
  br i1 %11, label %.lr.ph36.us.us, label %_PyMutex_Unlock.exit.us

.lr.ph36.us.us:                                   ; preds = %.lr.ph45.split.us, %._crit_edge37.us.us
  %.02843.us.us = phi i64 [ %19, %._crit_edge37.us.us ], [ 0, %.lr.ph45.split.us ]
  %.02942.us.us = phi double [ %16, %._crit_edge37.us.us ], [ 1.000000e+00, %.lr.ph45.split.us ]
  %12 = load ptr, ptr %10, align 8, !tbaa !43
  %13 = tail call i32 @PyThread_acquire_lock(ptr noundef %12, i32 noundef 1) #6
  %.promoted39.us.us = load double, ptr %9, align 8, !tbaa !68
  br label %14

14:                                               ; preds = %.lr.ph36.us.us, %14
  %15 = phi double [ %.promoted39.us.us, %.lr.ph36.us.us ], [ %16, %14 ]
  %.034.us.us = phi i32 [ 0, %.lr.ph36.us.us ], [ %17, %14 ]
  %.333.us.us = phi double [ %.02942.us.us, %.lr.ph36.us.us ], [ %16, %14 ]
  %16 = fadd double %.333.us.us, %15
  %17 = add nuw nsw i32 %.034.us.us, 1
  %exitcond65.not = icmp eq i32 %17, %.fr56
  br i1 %exitcond65.not, label %._crit_edge37.us.us, label %14, !llvm.loop !69

._crit_edge37.us.us:                              ; preds = %14
  store double %16, ptr %9, align 8, !tbaa !68
  %18 = load ptr, ptr %10, align 8, !tbaa !43
  tail call void @PyThread_release_lock(ptr noundef %18) #6
  %19 = add i64 %.02843.us.us, 1
  %20 = load atomic i32, ptr %2 monotonic, align 4
  %.not.us.us = icmp eq i32 %20, 0
  br i1 %.not.us.us, label %.lr.ph36.us.us, label %._crit_edge46, !llvm.loop !70

_PyMutex_Unlock.exit.us:                          ; preds = %.lr.ph45.split.us, %_PyMutex_Unlock.exit.us
  %.02843.us = phi i64 [ %24, %_PyMutex_Unlock.exit.us ], [ 0, %.lr.ph45.split.us ]
  %21 = load ptr, ptr %10, align 8, !tbaa !43
  %22 = tail call i32 @PyThread_acquire_lock(ptr noundef %21, i32 noundef 1) #6
  %23 = load ptr, ptr %10, align 8, !tbaa !43
  tail call void @PyThread_release_lock(ptr noundef %23) #6
  %24 = add i64 %.02843.us, 1
  %25 = load atomic i32, ptr %2 monotonic, align 4
  %.not.us = icmp eq i32 %25, 0
  br i1 %.not.us, label %_PyMutex_Unlock.exit.us, label %._crit_edge46, !llvm.loop !70

.lr.ph45.split:                                   ; preds = %.lr.ph45
  br i1 %11, label %.lr.ph45.split.split.us, label %.lr.ph45.split.split

.lr.ph45.split.split.us:                          ; preds = %.lr.ph45.split, %_PyMutex_Unlock.exit.us50
  %.02843.us48 = phi i64 [ %34, %_PyMutex_Unlock.exit.us50 ], [ 0, %.lr.ph45.split ]
  %.02942.us49 = phi double [ %32, %_PyMutex_Unlock.exit.us50 ], [ 1.000000e+00, %.lr.ph45.split ]
  %26 = cmpxchg ptr %8, i8 0, i8 1 seq_cst seq_cst, align 1
  %27 = extractvalue { i8, i1 } %26, 1
  br i1 %27, label %_PyMutex_Lock.exit.us, label %28

28:                                               ; preds = %.lr.ph45.split.split.us
  tail call void @PyMutex_Lock(ptr noundef nonnull %8) #6
  br label %_PyMutex_Lock.exit.us

_PyMutex_Lock.exit.us:                            ; preds = %28, %.lr.ph45.split.split.us
  %.promoted.us = load double, ptr %9, align 8, !tbaa !68
  br label %30

29:                                               ; preds = %._crit_edge.us
  tail call void @PyMutex_Unlock(ptr noundef nonnull %8) #6
  br label %_PyMutex_Unlock.exit.us50

30:                                               ; preds = %_PyMutex_Lock.exit.us, %30
  %31 = phi double [ %.promoted.us, %_PyMutex_Lock.exit.us ], [ %32, %30 ]
  %.02732.us = phi i32 [ 0, %_PyMutex_Lock.exit.us ], [ %33, %30 ]
  %.131.us = phi double [ %.02942.us49, %_PyMutex_Lock.exit.us ], [ %32, %30 ]
  %32 = fadd double %.131.us, %31
  %33 = add nuw nsw i32 %.02732.us, 1
  %exitcond.not = icmp eq i32 %33, %.fr56
  br i1 %exitcond.not, label %._crit_edge.us, label %30, !llvm.loop !71

_PyMutex_Unlock.exit.us50:                        ; preds = %29, %._crit_edge.us
  %34 = add i64 %.02843.us48, 1
  %35 = load atomic i32, ptr %2 monotonic, align 4
  %.not.us51 = icmp eq i32 %35, 0
  br i1 %.not.us51, label %.lr.ph45.split.split.us, label %._crit_edge46, !llvm.loop !70

._crit_edge.us:                                   ; preds = %30
  store double %32, ptr %9, align 8, !tbaa !68
  %36 = cmpxchg ptr %8, i8 1, i8 0 seq_cst seq_cst, align 1
  %37 = extractvalue { i8, i1 } %36, 1
  br i1 %37, label %_PyMutex_Unlock.exit.us50, label %29

.lr.ph45.split.split:                             ; preds = %.lr.ph45.split, %_PyMutex_Unlock.exit
  %.02843 = phi i64 [ %44, %_PyMutex_Unlock.exit ], [ 0, %.lr.ph45.split ]
  %38 = cmpxchg ptr %8, i8 0, i8 1 seq_cst seq_cst, align 1
  %39 = extractvalue { i8, i1 } %38, 1
  br i1 %39, label %_PyMutex_Lock.exit, label %40

40:                                               ; preds = %.lr.ph45.split.split
  tail call void @PyMutex_Lock(ptr noundef nonnull %8) #6
  br label %_PyMutex_Lock.exit

_PyMutex_Lock.exit:                               ; preds = %.lr.ph45.split.split, %40
  %41 = cmpxchg ptr %8, i8 1, i8 0 seq_cst seq_cst, align 1
  %42 = extractvalue { i8, i1 } %41, 1
  br i1 %42, label %_PyMutex_Unlock.exit, label %43

43:                                               ; preds = %_PyMutex_Lock.exit
  tail call void @PyMutex_Unlock(ptr noundef nonnull %8) #6
  br label %_PyMutex_Unlock.exit

_PyMutex_Unlock.exit:                             ; preds = %43, %_PyMutex_Lock.exit
  %44 = add i64 %.02843, 1
  %45 = load atomic i32, ptr %2 monotonic, align 4
  %.not = icmp eq i32 %45, 0
  br i1 %.not, label %.lr.ph45.split.split, label %._crit_edge46, !llvm.loop !70

._crit_edge46:                                    ; preds = %_PyMutex_Unlock.exit, %_PyMutex_Unlock.exit.us50, %_PyMutex_Unlock.exit.us, %._crit_edge37.us.us, %1
  %.028.lcssa = phi i64 [ 0, %1 ], [ %19, %._crit_edge37.us.us ], [ %24, %_PyMutex_Unlock.exit.us ], [ %34, %_PyMutex_Unlock.exit.us50 ], [ %44, %_PyMutex_Unlock.exit ]
  %46 = getelementptr inbounds nuw i8, ptr %0, i64 8
  store i64 %.028.lcssa, ptr %46, align 8, !tbaa !50
  %47 = getelementptr inbounds nuw i8, ptr %2, i64 240
  %48 = atomicrmw add ptr %47, i64 %.028.lcssa seq_cst, align 8
  %49 = getelementptr inbounds nuw i8, ptr %0, i64 16
  tail call void @_PyEvent_Notify(ptr noundef nonnull %49) #6
  ret void
}